; Function Attrs: nounwind uwtable
define ptr @l_Lake_BuildType_leanArgs(i8 noundef zeroext %0) local_unnamed_addr #1 {
  %2 = icmp eq i8 %0, 0
  %l_Lake_BuildType_leanOptions___closed__6.val.i = load ptr, ptr @l_Lake_BuildType_leanOptions___closed__6, align 8
  %l_Lake_LeanConfig_leanOptions___proj___elambda__1___closed__1.val.i = load ptr, ptr @l_Lake_LeanConfig_leanOptions___proj___elambda__1___closed__1, align 8
  %.0.i = select i1 %2, ptr %l_Lake_BuildType_leanOptions___closed__6.val.i, ptr %l_Lake_LeanConfig_leanOptions___proj___elambda__1___closed__1.val.i
  %3 = getelementptr i8, ptr %.0.i, i64 8
  %.val = load i64, ptr %3, align 8, !tbaa !16
  %4 = tail call ptr @l_Array_mapMUnsafe_map___at_Lake_BuildType_leanArgs___spec__1(i64 noundef %.val, i64 noundef 0, ptr noundef %.0.i)
  ret ptr %4
}